target datalayout = "e-m:e-p270:32:32-p271:32:32-p272:64:64-i64:64-i128:128-f80:128-n8:16:32:64-S128"
target triple = "x86_64-pc-linux-gnu"

@hf_cigi3_short_articulated_part_control_entity_id = internal global i32 0, align 4
@hf_cigi3_short_articulated_part_control_part_id_1 = internal global i32 0, align 4
@hf_cigi3_short_articulated_part_control_part_id_2 = internal global i32 0, align 4
@hf_cigi3_short_articulated_part_control_dof_select_1 = internal global i32 0, align 4
@hf_cigi3_short_articulated_part_control_dof_select_2 = internal global i32 0, align 4
@hf_cigi3_short_articulated_part_control_part_enable_1 = internal global i32 0, align 4
@hf_cigi3_short_articulated_part_control_part_enable_2 = internal global i32 0, align 4
@hf_cigi3_short_articulated_part_control_dof_1 = internal global i32 0, align 4
@hf_cigi3_short_articulated_part_control_dof_2 = internal global i32 0, align 4
@cigi_byte_order = internal global i32 0, align 4

; Function Attrs: null_pointer_is_valid sspstrong uwtable
define internal i32 @cigi3_add_short_articulated_part_control(ptr noundef %0, ptr noundef %1, ptr noundef %2, ptr noundef %3) #0 {
  %5 = alloca ptr, align 8
  %6 = alloca ptr, align 8
  %7 = alloca ptr, align 8
  %8 = alloca ptr, align 8
  %9 = alloca i32, align 4
  store ptr %0, ptr %5, align 8
  store ptr %1, ptr %6, align 8
  store ptr %2, ptr %7, align 8
  store ptr %3, ptr %8, align 8
  call void @llvm.lifetime.start.p0(i64 4, ptr %9) #5
  store i32 0, ptr %9, align 4
  %10 = load ptr, ptr %7, align 8
  %11 = load i32, ptr @hf_cigi3_short_articulated_part_control_entity_id, align 4
  %12 = load ptr, ptr %5, align 8
  %13 = load i32, ptr %9, align 4
  %14 = load i32, ptr @cigi_byte_order, align 4
  %15 = call ptr @proto_tree_add_item(ptr noundef %10, i32 noundef %11, ptr noundef %12, i32 noundef %13, i32 noundef 2, i32 noundef %14)
  %16 = load i32, ptr %9, align 4
  %17 = add i32 %16, 2
  store i32 %17, ptr %9, align 4
  %18 = load ptr, ptr %7, align 8
  %19 = load i32, ptr @hf_cigi3_short_articulated_part_control_part_id_1, align 4
  %20 = load ptr, ptr %5, align 8
  %21 = load i32, ptr %9, align 4
  %22 = load i32, ptr @cigi_byte_order, align 4
  %23 = call ptr @proto_tree_add_item(ptr noundef %18, i32 noundef %19, ptr noundef %20, i32 noundef %21, i32 noundef 1, i32 noundef %22)
  %24 = load i32, ptr %9, align 4
  %25 = add i32 %24, 1
  store i32 %25, ptr %9, align 4
  %26 = load ptr, ptr %7, align 8
  %27 = load i32, ptr @hf_cigi3_short_articulated_part_control_part_id_2, align 4
  %28 = load ptr, ptr %5, align 8
  %29 = load i32, ptr %9, align 4
  %30 = load i32, ptr @cigi_byte_order, align 4
  %31 = call ptr @proto_tree_add_item(ptr noundef %26, i32 noundef %27, ptr noundef %28, i32 noundef %29, i32 noundef 1, i32 noundef %30)
  %32 = load i32, ptr %9, align 4
  %33 = add i32 %32, 1
  store i32 %33, ptr %9, align 4
  %34 = load ptr, ptr %7, align 8
  %35 = load i32, ptr @hf_cigi3_short_articulated_part_control_dof_select_1, align 4
  %36 = load ptr, ptr %5, align 8
  %37 = load i32, ptr %9, align 4
  %38 = load i32, ptr @cigi_byte_order, align 4
  %39 = call ptr @proto_tree_add_item(ptr noundef %34, i32 noundef %35, ptr noundef %36, i32 noundef %37, i32 noundef 1, i32 noundef %38)
  %40 = load ptr, ptr %7, align 8
  %41 = load i32, ptr @hf_cigi3_short_articulated_part_control_dof_select_2, align 4
  %42 = load ptr, ptr %5, align 8
  %43 = load i32, ptr %9, align 4
  %44 = load i32, ptr @cigi_byte_order, align 4
  %45 = call ptr @proto_tree_add_item(ptr noundef %40, i32 noundef %41, ptr noundef %42, i32 noundef %43, i32 noundef 1, i32 noundef %44)
  %46 = load ptr, ptr %7, align 8
  %47 = load i32, ptr @hf_cigi3_short_articulated_part_control_part_enable_1, align 4
  %48 = load ptr, ptr %5, align 8
  %49 = load i32, ptr %9, align 4
  %50 = load i32, ptr @cigi_byte_order, align 4
  %51 = call ptr @proto_tree_add_item(ptr noundef %46, i32 noundef %47, ptr noundef %48, i32 noundef %49, i32 noundef 1, i32 noundef %50)
  %52 = load ptr, ptr %7, align 8
  %53 = load i32, ptr @hf_cigi3_short_articulated_part_control_part_enable_2, align 4
  %54 = load ptr, ptr %5, align 8
  %55 = load i32, ptr %9, align 4
  %56 = load i32, ptr @cigi_byte_order, align 4
  %57 = call ptr @proto_tree_add_item(ptr noundef %52, i32 noundef %53, ptr noundef %54, i32 noundef %55, i32 noundef 1, i32 noundef %56)
  %58 = load i32, ptr %9, align 4
  %59 = add i32 %58, 2
  store i32 %59, ptr %9, align 4
  %60 = load ptr, ptr %7, align 8
  %61 = load i32, ptr @hf_cigi3_short_articulated_part_control_dof_1, align 4
  %62 = load ptr, ptr %5, align 8
  %63 = load i32, ptr %9, align 4
  %64 = load i32, ptr @cigi_byte_order, align 4
  %65 = call ptr @proto_tree_add_item(ptr noundef %60, i32 noundef %61, ptr noundef %62, i32 noundef %63, i32 noundef 4, i32 noundef %64)
  %66 = load i32, ptr %9, align 4
  %67 = add i32 %66, 4
  store i32 %67, ptr %9, align 4
  %68 = load ptr, ptr %7, align 8
  %69 = load i32, ptr @hf_cigi3_short_articulated_part_control_dof_2, align 4
  %70 = load ptr, ptr %5, align 8
  %71 = load i32, ptr %9, align 4
  %72 = load i32, ptr @cigi_byte_order, align 4
  %73 = call ptr @proto_tree_add_item(ptr noundef %68, i32 noundef %69, ptr noundef %70, i32 noundef %71, i32 noundef 4, i32 noundef %72)
  %74 = load i32, ptr %9, align 4
  %75 = add i32 %74, 4
  store i32 %75, ptr %9, align 4
  %76 = load i32, ptr %9, align 4
  call void @llvm.lifetime.end.p0(i64 4, ptr %9) #5
  ret i32 %76
}